target datalayout = "e-m:e-p270:32:32-p271:32:32-p272:64:64-i64:64-i128:128-f80:128-n8:16:32:64-S128"
target triple = "x86_64-pc-linux-gnu"

%struct.PutBitContext = type { i32, i32, ptr, ptr, ptr }

@.str.5 = private unnamed_addr constant [43 x i8] c"Internal error, put_bits buffer too small\0A\00", align 1

; Function Attrs: alwaysinline nounwind willreturn memory(none) uwtable
define internal i32 @av_bswap32(i32 noundef %0) #8 {
  %2 = alloca i32, align 4
  store i32 %0, ptr %2, align 4, !tbaa !9
  %3 = load i32, ptr %2, align 4, !tbaa !9
  %4 = shl i32 %3, 8
  %5 = and i32 %4, 65280
  %6 = load i32, ptr %2, align 4, !tbaa !9
  %7 = lshr i32 %6, 8
  %8 = and i32 %7, 255
  %9 = or i32 %5, %8
  %10 = shl i32 %9, 16
  %11 = load i32, ptr %2, align 4, !tbaa !9
  %12 = lshr i32 %11, 16
  %13 = shl i32 %12, 8
  %14 = and i32 %13, 65280
  %15 = load i32, ptr %2, align 4, !tbaa !9
  %16 = lshr i32 %15, 16
  %17 = lshr i32 %16, 8
  %18 = and i32 %17, 255
  %19 = or i32 %14, %18
  %20 = or i32 %10, %19
  ret i32 %20
}

; Function Attrs: inlinehint nounwind uwtable
define internal void @put_bits_no_assert(ptr noundef %0, i32 noundef %1, i32 noundef %2) #3 {
  %4 = alloca ptr, align 8
  %5 = alloca i32, align 4
  %6 = alloca i32, align 4
  %7 = alloca i32, align 4
  %8 = alloca i32, align 4
  store ptr %0, ptr %4, align 8, !tbaa !4
  store i32 %1, ptr %5, align 4, !tbaa !9
  store i32 %2, ptr %6, align 4, !tbaa !9
  call void @llvm.lifetime.start.p0(i64 4, ptr %7) #11
  call void @llvm.lifetime.start.p0(i64 4, ptr %8) #11
  %9 = load ptr, ptr %4, align 8, !tbaa !4
  %10 = getelementptr inbounds nuw %struct.PutBitContext, ptr %9, i32 0, i32 0
  %11 = load i32, ptr %10, align 8, !tbaa !156
  store i32 %11, ptr %7, align 4, !tbaa !9
  %12 = load ptr, ptr %4, align 8, !tbaa !4
  %13 = getelementptr inbounds nuw %struct.PutBitContext, ptr %12, i32 0, i32 1
  %14 = load i32, ptr %13, align 4, !tbaa !157
  store i32 %14, ptr %8, align 4, !tbaa !9
  %15 = load i32, ptr %5, align 4, !tbaa !9
  %16 = load i32, ptr %8, align 4, !tbaa !9
  %17 = icmp slt i32 %15, %16
  br i1 %17, label %18, label %27

18:                                               ; preds = %3
  %19 = load i32, ptr %7, align 4, !tbaa !9
  %20 = load i32, ptr %5, align 4, !tbaa !9
  %21 = shl i32 %19, %20
  %22 = load i32, ptr %6, align 4, !tbaa !9
  %23 = or i32 %21, %22
  store i32 %23, ptr %7, align 4, !tbaa !9
  %24 = load i32, ptr %5, align 4, !tbaa !9
  %25 = load i32, ptr %8, align 4, !tbaa !9
  %26 = sub nsw i32 %25, %24
  store i32 %26, ptr %8, align 4, !tbaa !9
  br label %65

27:                                               ; preds = %3
  %28 = load i32, ptr %8, align 4, !tbaa !9
  %29 = load i32, ptr %7, align 4, !tbaa !9
  %30 = shl i32 %29, %28
  store i32 %30, ptr %7, align 4, !tbaa !9
  %31 = load i32, ptr %6, align 4, !tbaa !9
  %32 = load i32, ptr %5, align 4, !tbaa !9
  %33 = load i32, ptr %8, align 4, !tbaa !9
  %34 = sub nsw i32 %32, %33
  %35 = lshr i32 %31, %34
  %36 = load i32, ptr %7, align 4, !tbaa !9
  %37 = or i32 %36, %35
  store i32 %37, ptr %7, align 4, !tbaa !9
  %38 = load ptr, ptr %4, align 8, !tbaa !4
  %39 = getelementptr inbounds nuw %struct.PutBitContext, ptr %38, i32 0, i32 4
  %40 = load ptr, ptr %39, align 8, !tbaa !158
  %41 = load ptr, ptr %4, align 8, !tbaa !4
  %42 = getelementptr inbounds nuw %struct.PutBitContext, ptr %41, i32 0, i32 3
  %43 = load ptr, ptr %42, align 8, !tbaa !159
  %44 = ptrtoint ptr %40 to i64
  %45 = ptrtoint ptr %43 to i64
  %46 = sub i64 %44, %45
  %47 = icmp uge i64 %46, 4
  br i1 %47, label %48, label %58

48:                                               ; preds = %27
  %49 = load i32, ptr %7, align 4, !tbaa !9
  %50 = call i32 @av_bswap32(i32 noundef %49) #12
  %51 = load ptr, ptr %4, align 8, !tbaa !4
  %52 = getelementptr inbounds nuw %struct.PutBitContext, ptr %51, i32 0, i32 3
  %53 = load ptr, ptr %52, align 8, !tbaa !159
  store i32 %50, ptr %53, align 1, !tbaa !11
  %54 = load ptr, ptr %4, align 8, !tbaa !4
  %55 = getelementptr inbounds nuw %struct.PutBitContext, ptr %54, i32 0, i32 3
  %56 = load ptr, ptr %55, align 8, !tbaa !159
  %57 = getelementptr inbounds nuw i8, ptr %56, i64 4
  store ptr %57, ptr %55, align 8, !tbaa !159
  br label %59

58:                                               ; preds = %27
  call void (ptr, i32, ptr, ...) @av_log(ptr noundef null, i32 noundef 16, ptr noundef @.str.5)
  br label %59

59:                                               ; preds = %58, %48
  %60 = load i32, ptr %5, align 4, !tbaa !9
  %61 = sub nsw i32 32, %60
  %62 = load i32, ptr %8, align 4, !tbaa !9
  %63 = add nsw i32 %62, %61
  store i32 %63, ptr %8, align 4, !tbaa !9
  %64 = load i32, ptr %6, align 4, !tbaa !9
  store i32 %64, ptr %7, align 4, !tbaa !9
  br label %65

65:                                               ; preds = %59, %18
  %66 = load i32, ptr %7, align 4, !tbaa !9
  %67 = load ptr, ptr %4, align 8, !tbaa !4
  %68 = getelementptr inbounds nuw %struct.PutBitContext, ptr %67, i32 0, i32 0
  store i32 %66, ptr %68, align 8, !tbaa !156
  %69 = load i32, ptr %8, align 4, !tbaa !9
  %70 = load ptr, ptr %4, align 8, !tbaa !4
  %71 = getelementptr inbounds nuw %struct.PutBitContext, ptr %70, i32 0, i32 1
  store i32 %69, ptr %71, align 4, !tbaa !157
  call void @llvm.lifetime.end.p0(i64 4, ptr %8) #11
  call void @llvm.lifetime.end.p0(i64 4, ptr %7) #11
  ret void
}

; Function Attrs: inlinehint nounwind uwtable
define internal void @put_bits(ptr noundef %0, i32 noundef %1, i32 noundef %2) #3 {
  %4 = alloca ptr, align 8
  %5 = alloca i32, align 4
  %6 = alloca i32, align 4
  store ptr %0, ptr %4, align 8, !tbaa !4
  store i32 %1, ptr %5, align 4, !tbaa !9
  store i32 %2, ptr %6, align 4, !tbaa !9
  %7 = load ptr, ptr %4, align 8, !tbaa !4
  %8 = load i32, ptr %5, align 4, !tbaa !9
  %9 = load i32, ptr %6, align 4, !tbaa !9
  call void @put_bits_no_assert(ptr noundef %7, i32 noundef %8, i32 noundef %9)
  ret void
}

; Function Attrs: nounwind uwtable
define internal void @h263p_encode_umotion(ptr noundef %0, i32 noundef %1) #2 {
  %3 = alloca ptr, align 8
  %4 = alloca i32, align 4
  %5 = alloca i16, align 2
  %6 = alloca i16, align 2
  %7 = alloca i16, align 2
  %8 = alloca i16, align 2
  %9 = alloca i32, align 4
  %10 = alloca i32, align 4
  store ptr %0, ptr %3, align 8, !tbaa !4
  store i32 %1, ptr %4, align 4, !tbaa !9
  call void @llvm.lifetime.start.p0(i64 2, ptr %5) #11
  store i16 0, ptr %5, align 2, !tbaa !62
  call void @llvm.lifetime.start.p0(i64 2, ptr %6) #11
  store i16 0, ptr %6, align 2, !tbaa !62
  call void @llvm.lifetime.start.p0(i64 2, ptr %7) #11
  store i16 0, ptr %7, align 2, !tbaa !62
  call void @llvm.lifetime.start.p0(i64 2, ptr %8) #11
  call void @llvm.lifetime.start.p0(i64 4, ptr %9) #11
  store i32 0, ptr %9, align 4, !tbaa !9
  call void @llvm.lifetime.start.p0(i64 4, ptr %10) #11
  %11 = load i32, ptr %4, align 4, !tbaa !9
  %12 = icmp eq i32 %11, 0
  br i1 %12, label %13, label %15

13:                                               ; preds = %2
  %14 = load ptr, ptr %3, align 8, !tbaa !4
  call void @put_bits(ptr noundef %14, i32 noundef 1, i32 noundef 1)
  br label %98

15:                                               ; preds = %2
  %16 = load i32, ptr %4, align 4, !tbaa !9
  %17 = icmp eq i32 %16, 1
  br i1 %17, label %18, label %20

18:                                               ; preds = %15
  %19 = load ptr, ptr %3, align 8, !tbaa !4
  call void @put_bits(ptr noundef %19, i32 noundef 3, i32 noundef 0)
  br label %97

20:                                               ; preds = %15
  %21 = load i32, ptr %4, align 4, !tbaa !9
  %22 = icmp eq i32 %21, -1
  br i1 %22, label %23, label %25

23:                                               ; preds = %20
  %24 = load ptr, ptr %3, align 8, !tbaa !4
  call void @put_bits(ptr noundef %24, i32 noundef 3, i32 noundef 2)
  br label %96

25:                                               ; preds = %20
  %26 = load i32, ptr %4, align 4, !tbaa !9
  %27 = icmp slt i32 %26, 0
  br i1 %27, label %28, label %33

28:                                               ; preds = %25
  %29 = load i32, ptr %4, align 4, !tbaa !9
  %30 = sub nsw i32 0, %29
  %31 = trunc i32 %30 to i16
  %32 = sext i16 %31 to i32
  br label %37

33:                                               ; preds = %25
  %34 = load i32, ptr %4, align 4, !tbaa !9
  %35 = trunc i32 %34 to i16
  %36 = sext i16 %35 to i32
  br label %37

37:                                               ; preds = %33, %28
  %38 = phi i32 [ %32, %28 ], [ %36, %33 ]
  %39 = trunc i32 %38 to i16
  store i16 %39, ptr %5, align 2, !tbaa !62
  %40 = load i16, ptr %5, align 2, !tbaa !62
  store i16 %40, ptr %8, align 2, !tbaa !62
  br label %41

41:                                               ; preds = %45, %37
  %42 = load i16, ptr %8, align 2, !tbaa !62
  %43 = sext i16 %42 to i32
  %44 = icmp ne i32 %43, 0
  br i1 %44, label %45, label %52

45:                                               ; preds = %41
  %46 = load i16, ptr %8, align 2, !tbaa !62
  %47 = sext i16 %46 to i32
  %48 = ashr i32 %47, 1
  %49 = trunc i32 %48 to i16
  store i16 %49, ptr %8, align 2, !tbaa !62
  %50 = load i16, ptr %7, align 2, !tbaa !62
  %51 = add i16 %50, 1
  store i16 %51, ptr %7, align 2, !tbaa !62
  br label %41, !llvm.loop !168

52:                                               ; preds = %41
  %53 = load i16, ptr %7, align 2, !tbaa !62
  %54 = sext i16 %53 to i32
  %55 = sub nsw i32 %54, 1
  %56 = trunc i32 %55 to i16
  store i16 %56, ptr %6, align 2, !tbaa !62
  br label %57

57:                                               ; preds = %61, %52
  %58 = load i16, ptr %6, align 2, !tbaa !62
  %59 = sext i16 %58 to i32
  %60 = icmp sgt i32 %59, 0
  br i1 %60, label %61, label %82

61:                                               ; preds = %57
  %62 = load i16, ptr %5, align 2, !tbaa !62
  %63 = sext i16 %62 to i32
  %64 = load i16, ptr %6, align 2, !tbaa !62
  %65 = sext i16 %64 to i32
  %66 = sub nsw i32 %65, 1
  %67 = shl i32 1, %66
  %68 = and i32 %63, %67
  %69 = load i16, ptr %6, align 2, !tbaa !62
  %70 = sext i16 %69 to i32
  %71 = sub nsw i32 %70, 1
  %72 = ashr i32 %68, %71
  store i32 %72, ptr %10, align 4, !tbaa !9
  %73 = load i32, ptr %10, align 4, !tbaa !9
  %74 = shl i32 %73, 1
  %75 = or i32 %74, 1
  store i32 %75, ptr %10, align 4, !tbaa !9
  %76 = load i32, ptr %9, align 4, !tbaa !9
  %77 = shl i32 %76, 2
  %78 = load i32, ptr %10, align 4, !tbaa !9
  %79 = or i32 %77, %78
  store i32 %79, ptr %9, align 4, !tbaa !9
  %80 = load i16, ptr %6, align 2, !tbaa !62
  %81 = add i16 %80, -1
  store i16 %81, ptr %6, align 2, !tbaa !62
  br label %57, !llvm.loop !169

82:                                               ; preds = %57
  %83 = load i32, ptr %9, align 4, !tbaa !9
  %84 = shl i32 %83, 1
  %85 = load i32, ptr %4, align 4, !tbaa !9
  %86 = icmp slt i32 %85, 0
  %87 = zext i1 %86 to i32
  %88 = or i32 %84, %87
  %89 = shl i32 %88, 1
  store i32 %89, ptr %9, align 4, !tbaa !9
  %90 = load ptr, ptr %3, align 8, !tbaa !4
  %91 = load i16, ptr %7, align 2, !tbaa !62
  %92 = sext i16 %91 to i32
  %93 = mul nsw i32 2, %92
  %94 = add nsw i32 %93, 1
  %95 = load i32, ptr %9, align 4, !tbaa !9
  call void @put_bits(ptr noundef %90, i32 noundef %94, i32 noundef %95)
  br label %96

96:                                               ; preds = %82, %23
  br label %97

97:                                               ; preds = %96, %18
  br label %98

98:                                               ; preds = %97, %13
  call void @llvm.lifetime.end.p0(i64 4, ptr %10) #11
  call void @llvm.lifetime.end.p0(i64 4, ptr %9) #11
  call void @llvm.lifetime.end.p0(i64 2, ptr %8) #11
  call void @llvm.lifetime.end.p0(i64 2, ptr %7) #11
  call void @llvm.lifetime.end.p0(i64 2, ptr %6) #11
  call void @llvm.lifetime.end.p0(i64 2, ptr %5) #11
  ret void
}