; Function Attrs: nounwind uwtable
define internal fastcc void @h263p_encode_umotion(ptr noundef captures(none) %0, i32 noundef %1) unnamed_addr #2 {
  switch i32 %1, label %80 [
    i32 0, label %3
    i32 1, label %30
    i32 -1, label %53
  ]

3:                                                ; preds = %2
  %4 = load i32, ptr %0, align 8, !tbaa !4
  %5 = getelementptr inbounds nuw i8, ptr %0, i64 4
  %6 = load i32, ptr %5, align 4, !tbaa !11
  %7 = icmp sgt i32 %6, 1
  br i1 %7, label %8, label %11

8:                                                ; preds = %3
  %9 = shl i32 %4, 1
  %10 = or disjoint i32 %9, 1
  br label %put_bits.exit

11:                                               ; preds = %3
  %12 = getelementptr inbounds nuw i8, ptr %0, i64 24
  %13 = load ptr, ptr %12, align 8, !tbaa !12
  %14 = getelementptr inbounds nuw i8, ptr %0, i64 16
  %15 = load ptr, ptr %14, align 8, !tbaa !13
  %16 = ptrtoint ptr %13 to i64
  %17 = ptrtoint ptr %15 to i64
  %18 = sub i64 %16, %17
  %19 = icmp ugt i64 %18, 3
  br i1 %19, label %20, label %28

20:                                               ; preds = %11
  %21 = shl i32 %4, %6
  %22 = sub nsw i32 1, %6
  %23 = lshr i32 1, %22
  %24 = or i32 %23, %21
  %25 = tail call i32 @llvm.bswap.i32(i32 %24)
  store i32 %25, ptr %15, align 1, !tbaa !14
  %26 = load ptr, ptr %14, align 8, !tbaa !13
  %27 = getelementptr inbounds nuw i8, ptr %26, i64 4
  store ptr %27, ptr %14, align 8, !tbaa !13
  br label %put_bits.exit

28:                                               ; preds = %11
  tail call void (ptr, i32, ptr, ...) @av_log(ptr noundef null, i32 noundef 16, ptr noundef nonnull @.str.5) #11
  br label %put_bits.exit

put_bits.exit:                                    ; preds = %20, %28, %8
  %.sink = phi i32 [ -1, %8 ], [ 31, %28 ], [ 31, %20 ]
  %.026.i.i = phi i32 [ %10, %8 ], [ 1, %28 ], [ 1, %20 ]
  %29 = add nsw i32 %6, %.sink
  store i32 %.026.i.i, ptr %0, align 8, !tbaa !4
  store i32 %29, ptr %5, align 4, !tbaa !11
  br label %130

30:                                               ; preds = %2
  %31 = load i32, ptr %0, align 8, !tbaa !4
  %32 = getelementptr inbounds nuw i8, ptr %0, i64 4
  %33 = load i32, ptr %32, align 4, !tbaa !11
  %34 = icmp sgt i32 %33, 3
  br i1 %34, label %35, label %37

35:                                               ; preds = %30
  %36 = shl i32 %31, 3
  br label %put_bits.exit37

37:                                               ; preds = %30
  %38 = getelementptr inbounds nuw i8, ptr %0, i64 24
  %39 = load ptr, ptr %38, align 8, !tbaa !12
  %40 = getelementptr inbounds nuw i8, ptr %0, i64 16
  %41 = load ptr, ptr %40, align 8, !tbaa !13
  %42 = ptrtoint ptr %39 to i64
  %43 = ptrtoint ptr %41 to i64
  %44 = sub i64 %42, %43
  %45 = icmp ugt i64 %44, 3
  br i1 %45, label %46, label %51

46:                                               ; preds = %37
  %47 = shl i32 %31, %33
  %48 = tail call i32 @llvm.bswap.i32(i32 %47)
  store i32 %48, ptr %41, align 1, !tbaa !14
  %49 = load ptr, ptr %40, align 8, !tbaa !13
  %50 = getelementptr inbounds nuw i8, ptr %49, i64 4
  store ptr %50, ptr %40, align 8, !tbaa !13
  br label %put_bits.exit37

51:                                               ; preds = %37
  tail call void (ptr, i32, ptr, ...) @av_log(ptr noundef null, i32 noundef 16, ptr noundef nonnull @.str.5) #11
  br label %put_bits.exit37

put_bits.exit37:                                  ; preds = %46, %51, %35
  %.sink62 = phi i32 [ -3, %35 ], [ 29, %51 ], [ 29, %46 ]
  %.026.i.i35 = phi i32 [ %36, %35 ], [ 0, %51 ], [ 0, %46 ]
  %52 = add nsw i32 %33, %.sink62
  store i32 %.026.i.i35, ptr %0, align 8, !tbaa !4
  store i32 %52, ptr %32, align 4, !tbaa !11
  br label %130

53:                                               ; preds = %2
  %54 = load i32, ptr %0, align 8, !tbaa !4
  %55 = getelementptr inbounds nuw i8, ptr %0, i64 4
  %56 = load i32, ptr %55, align 4, !tbaa !11
  %57 = icmp sgt i32 %56, 3
  br i1 %57, label %58, label %61

58:                                               ; preds = %53
  %59 = shl i32 %54, 3
  %60 = or disjoint i32 %59, 2
  br label %put_bits.exit41

61:                                               ; preds = %53
  %62 = getelementptr inbounds nuw i8, ptr %0, i64 24
  %63 = load ptr, ptr %62, align 8, !tbaa !12
  %64 = getelementptr inbounds nuw i8, ptr %0, i64 16
  %65 = load ptr, ptr %64, align 8, !tbaa !13
  %66 = ptrtoint ptr %63 to i64
  %67 = ptrtoint ptr %65 to i64
  %68 = sub i64 %66, %67
  %69 = icmp ugt i64 %68, 3
  br i1 %69, label %70, label %78

70:                                               ; preds = %61
  %71 = shl i32 %54, %56
  %72 = sub nsw i32 3, %56
  %73 = lshr i32 2, %72
  %74 = or i32 %73, %71
  %75 = tail call i32 @llvm.bswap.i32(i32 %74)
  store i32 %75, ptr %65, align 1, !tbaa !14
  %76 = load ptr, ptr %64, align 8, !tbaa !13
  %77 = getelementptr inbounds nuw i8, ptr %76, i64 4
  store ptr %77, ptr %64, align 8, !tbaa !13
  br label %put_bits.exit41

78:                                               ; preds = %61
  tail call void (ptr, i32, ptr, ...) @av_log(ptr noundef null, i32 noundef 16, ptr noundef nonnull @.str.5) #11
  br label %put_bits.exit41

put_bits.exit41:                                  ; preds = %70, %78, %58
  %.sink63 = phi i32 [ -3, %58 ], [ 29, %78 ], [ 29, %70 ]
  %.026.i.i39 = phi i32 [ %60, %58 ], [ 2, %78 ], [ 2, %70 ]
  %79 = add nsw i32 %56, %.sink63
  store i32 %.026.i.i39, ptr %0, align 8, !tbaa !4
  store i32 %79, ptr %55, align 4, !tbaa !11
  br label %130

80:                                               ; preds = %2
  %.in.in = tail call i32 @llvm.abs.i32(i32 %1, i1 false)
  %sext46 = shl i32 %.in.in, 16
  %.not47 = icmp eq i32 %sext46, 0
  br i1 %.not47, label %._crit_edge55, label %.lr.ph

.lr.ph:                                           ; preds = %80, %.lr.ph
  %sext49 = phi i32 [ %sext, %.lr.ph ], [ %sext46, %80 ]
  %.02748 = phi i16 [ %81, %.lr.ph ], [ 0, %80 ]
  %81 = add i16 %.02748, 1
  %82 = ashr exact i32 %sext49, 1
  %sext = and i32 %82, -65536
  %.not = icmp eq i32 %sext, 0
  br i1 %.not, label %._crit_edge, label %.lr.ph, !llvm.loop !159

._crit_edge:                                      ; preds = %.lr.ph
  %83 = sext i16 %81 to i32
  %84 = icmp sgt i16 %.02748, 0
  br i1 %84, label %.lr.ph54, label %._crit_edge55

.lr.ph54:                                         ; preds = %._crit_edge
  %85 = ashr exact i32 %sext46, 16
  %86 = zext nneg i16 %.02748 to i32
  br label %87

87:                                               ; preds = %.lr.ph54, %87
  %indvars.iv = phi i32 [ %86, %.lr.ph54 ], [ %88, %87 ]
  %.051 = phi i32 [ 0, %.lr.ph54 ], [ %95, %87 ]
  %88 = add nsw i32 %indvars.iv, -1
  %89 = shl nuw i32 1, %88
  %90 = and i32 %89, %85
  %91 = ashr i32 %90, %88
  %92 = shl i32 %91, 1
  %93 = shl i32 %.051, 2
  %94 = or i32 %92, %93
  %95 = or disjoint i32 %94, 1
  %96 = icmp samesign ugt i32 %indvars.iv, 1
  br i1 %96, label %87, label %._crit_edge55, !llvm.loop !160

._crit_edge55:                                    ; preds = %87, %80, %._crit_edge
  %97 = phi i32 [ %83, %._crit_edge ], [ 0, %80 ], [ %83, %87 ]
  %.0.lcssa = phi i32 [ 0, %._crit_edge ], [ 0, %80 ], [ %95, %87 ]
  %98 = tail call i32 @llvm.fshl.i32(i32 %.0.lcssa, i32 %1, i32 1)
  %99 = shl i32 %98, 1
  %100 = shl nsw i32 %97, 1
  %101 = or disjoint i32 %100, 1
  %102 = load i32, ptr %0, align 8, !tbaa !4
  %103 = getelementptr inbounds nuw i8, ptr %0, i64 4
  %104 = load i32, ptr %103, align 4, !tbaa !11
  %105 = icmp slt i32 %101, %104
  br i1 %105, label %106, label %110

106:                                              ; preds = %._crit_edge55
  %107 = shl i32 %102, %101
  %108 = or i32 %107, %99
  %109 = sub nsw i32 %104, %101
  br label %put_bits.exit45

110:                                              ; preds = %._crit_edge55
  %111 = getelementptr inbounds nuw i8, ptr %0, i64 24
  %112 = load ptr, ptr %111, align 8, !tbaa !12
  %113 = getelementptr inbounds nuw i8, ptr %0, i64 16
  %114 = load ptr, ptr %113, align 8, !tbaa !13
  %115 = ptrtoint ptr %112 to i64
  %116 = ptrtoint ptr %114 to i64
  %117 = sub i64 %115, %116
  %118 = icmp ugt i64 %117, 3
  br i1 %118, label %119, label %127

119:                                              ; preds = %110
  %120 = shl i32 %102, %104
  %121 = sub nsw i32 %101, %104
  %122 = lshr i32 %99, %121
  %123 = or i32 %122, %120
  %124 = tail call i32 @llvm.bswap.i32(i32 %123)
  store i32 %124, ptr %114, align 1, !tbaa !14
  %125 = load ptr, ptr %113, align 8, !tbaa !13
  %126 = getelementptr inbounds nuw i8, ptr %125, i64 4
  store ptr %126, ptr %113, align 8, !tbaa !13
  br label %128

127:                                              ; preds = %110
  tail call void (ptr, i32, ptr, ...) @av_log(ptr noundef null, i32 noundef 16, ptr noundef nonnull @.str.5) #11
  br label %128

128:                                              ; preds = %127, %119
  %reass.sub = sub i32 %104, %101
  %129 = add i32 %reass.sub, 32
  br label %put_bits.exit45

put_bits.exit45:                                  ; preds = %106, %128
  %.026.i.i43 = phi i32 [ %108, %106 ], [ %99, %128 ]
  %.0.i.i44 = phi i32 [ %109, %106 ], [ %129, %128 ]
  store i32 %.026.i.i43, ptr %0, align 8, !tbaa !4
  store i32 %.0.i.i44, ptr %103, align 4, !tbaa !11
  br label %130

130:                                              ; preds = %put_bits.exit37, %put_bits.exit45, %put_bits.exit41, %put_bits.exit
  ret void
}